target datalayout = "e-m:e-p270:32:32-p271:32:32-p272:64:64-i64:64-i128:128-f80:128-n8:16:32:64-S128"
target triple = "x86_64-pc-linux-gnu"

; Function Attrs: nounwind uwtable
define i32 @memCompare(ptr noundef %0, ptr noundef %1, i32 noundef %2) #0 {
  %4 = alloca i32, align 4
  %5 = alloca ptr, align 8
  %6 = alloca ptr, align 8
  %7 = alloca i32, align 4
  %8 = alloca i32, align 4
  %9 = alloca i32, align 4
  store ptr %0, ptr %5, align 8, !tbaa !3
  store ptr %1, ptr %6, align 8, !tbaa !3
  store i32 %2, ptr %7, align 4, !tbaa !8
  call void @llvm.lifetime.start.p0(i64 4, ptr %8) #7
  %10 = load i32, ptr %7, align 4, !tbaa !8
  %11 = call i32 @Kit_TruthWordNum_64bit(i32 noundef %10)
  %12 = sub nsw i32 %11, 1
  store i32 %12, ptr %8, align 4, !tbaa !8
  br label %13

13:                                               ; preds = %43, %3
  %14 = load i32, ptr %8, align 4, !tbaa !8
  %15 = icmp sge i32 %14, 0
  br i1 %15, label %16, label %46

16:                                               ; preds = %13
  %17 = load ptr, ptr %5, align 8, !tbaa !3
  %18 = load i32, ptr %8, align 4, !tbaa !8
  %19 = sext i32 %18 to i64
  %20 = getelementptr inbounds i64, ptr %17, i64 %19
  %21 = load i64, ptr %20, align 8, !tbaa !10
  %22 = load ptr, ptr %6, align 8, !tbaa !3
  %23 = load i32, ptr %8, align 4, !tbaa !8
  %24 = sext i32 %23 to i64
  %25 = getelementptr inbounds i64, ptr %22, i64 %24
  %26 = load i64, ptr %25, align 8, !tbaa !10
  %27 = icmp eq i64 %21, %26
  br i1 %27, label %28, label %29

28:                                               ; preds = %16
  br label %43

29:                                               ; preds = %16
  %30 = load ptr, ptr %5, align 8, !tbaa !3
  %31 = load i32, ptr %8, align 4, !tbaa !8
  %32 = sext i32 %31 to i64
  %33 = getelementptr inbounds i64, ptr %30, i64 %32
  %34 = load i64, ptr %33, align 8, !tbaa !10
  %35 = load ptr, ptr %6, align 8, !tbaa !3
  %36 = load i32, ptr %8, align 4, !tbaa !8
  %37 = sext i32 %36 to i64
  %38 = getelementptr inbounds i64, ptr %35, i64 %37
  %39 = load i64, ptr %38, align 8, !tbaa !10
  %40 = icmp ugt i64 %34, %39
  br i1 %40, label %41, label %42

41:                                               ; preds = %29
  store i32 1, ptr %4, align 4
  store i32 1, ptr %9, align 4
  br label %47

42:                                               ; preds = %29
  store i32 -1, ptr %4, align 4
  store i32 1, ptr %9, align 4
  br label %47

43:                                               ; preds = %28
  %44 = load i32, ptr %8, align 4, !tbaa !8
  %45 = add nsw i32 %44, -1
  store i32 %45, ptr %8, align 4, !tbaa !8
  br label %13, !llvm.loop !12

46:                                               ; preds = %13
  store i32 0, ptr %4, align 4
  store i32 1, ptr %9, align 4
  br label %47

47:                                               ; preds = %46, %42, %41
  call void @llvm.lifetime.end.p0(i64 4, ptr %8) #7
  %48 = load i32, ptr %4, align 4
  ret i32 %48
}

; Function Attrs: nounwind uwtable
define i32 @minimalFlip1(ptr noundef %0, ptr noundef %1, ptr noundef %2, i32 noundef %3) #0 {
  %5 = alloca i32, align 4
  %6 = alloca ptr, align 8
  %7 = alloca ptr, align 8
  %8 = alloca ptr, align 8
  %9 = alloca i32, align 4
  %10 = alloca i32, align 4
  %11 = alloca i32, align 4
  %12 = alloca i32, align 4
  store ptr %0, ptr %6, align 8, !tbaa !3
  store ptr %1, ptr %7, align 8, !tbaa !3
  store ptr %2, ptr %8, align 8, !tbaa !3
  store i32 %3, ptr %9, align 4, !tbaa !8
  call void @llvm.lifetime.start.p0(i64 4, ptr %10) #7
  call void @llvm.lifetime.start.p0(i64 4, ptr %11) #7
  %13 = load i32, ptr %9, align 4, !tbaa !8
  %14 = call i32 @Kit_TruthWordNum_64bit(i32 noundef %13)
  %15 = sext i32 %14 to i64
  %16 = mul i64 %15, 8
  %17 = trunc i64 %16 to i32
  store i32 %17, ptr %11, align 4, !tbaa !8
  %18 = load ptr, ptr %7, align 8, !tbaa !3
  %19 = load ptr, ptr %6, align 8, !tbaa !3
  %20 = load i32, ptr %11, align 4, !tbaa !8
  %21 = sext i32 %20 to i64
  call void @llvm.memcpy.p0.p0.i64(ptr align 8 %18, ptr align 8 %19, i64 %21, i1 false)
  %22 = load ptr, ptr %8, align 8, !tbaa !3
  %23 = load ptr, ptr %6, align 8, !tbaa !3
  %24 = load i32, ptr %11, align 4, !tbaa !8
  %25 = sext i32 %24 to i64
  call void @llvm.memcpy.p0.p0.i64(ptr align 8 %22, ptr align 8 %23, i64 %25, i1 false)
  %26 = load ptr, ptr %6, align 8, !tbaa !3
  %27 = load i32, ptr %9, align 4, !tbaa !8
  call void @Kit_TruthChangePhase_64bit(ptr noundef %26, i32 noundef %27, i32 noundef 0)
  store i32 1, ptr %10, align 4, !tbaa !8
  br label %28

28:                                               ; preds = %55, %4
  %29 = load i32, ptr %10, align 4, !tbaa !8
  %30 = load i32, ptr %9, align 4, !tbaa !8
  %31 = icmp slt i32 %29, %30
  br i1 %31, label %32, label %58

32:                                               ; preds = %28
  %33 = load ptr, ptr %7, align 8, !tbaa !3
  %34 = load ptr, ptr %6, align 8, !tbaa !3
  %35 = load i32, ptr %9, align 4, !tbaa !8
  %36 = call i32 @memCompare(ptr noundef %33, ptr noundef %34, i32 noundef %35)
  %37 = icmp eq i32 %36, 1
  br i1 %37, label %38, label %46

38:                                               ; preds = %32
  %39 = load ptr, ptr %7, align 8, !tbaa !3
  %40 = load ptr, ptr %6, align 8, !tbaa !3
  %41 = load i32, ptr %11, align 4, !tbaa !8
  %42 = sext i32 %41 to i64
  call void @llvm.memcpy.p0.p0.i64(ptr align 8 %39, ptr align 8 %40, i64 %42, i1 false)
  %43 = load ptr, ptr %6, align 8, !tbaa !3
  %44 = load i32, ptr %9, align 4, !tbaa !8
  %45 = load i32, ptr %10, align 4, !tbaa !8
  call void @Kit_TruthChangePhase_64bit(ptr noundef %43, i32 noundef %44, i32 noundef %45)
  br label %54

46:                                               ; preds = %32
  %47 = load ptr, ptr %6, align 8, !tbaa !3
  %48 = load ptr, ptr %7, align 8, !tbaa !3
  %49 = load i32, ptr %11, align 4, !tbaa !8
  %50 = sext i32 %49 to i64
  call void @llvm.memcpy.p0.p0.i64(ptr align 8 %47, ptr align 8 %48, i64 %50, i1 false)
  %51 = load ptr, ptr %6, align 8, !tbaa !3
  %52 = load i32, ptr %9, align 4, !tbaa !8
  %53 = load i32, ptr %10, align 4, !tbaa !8
  call void @Kit_TruthChangePhase_64bit(ptr noundef %51, i32 noundef %52, i32 noundef %53)
  br label %54

54:                                               ; preds = %46, %38
  br label %55

55:                                               ; preds = %54
  %56 = load i32, ptr %10, align 4, !tbaa !8
  %57 = add nsw i32 %56, 1
  store i32 %57, ptr %10, align 4, !tbaa !8
  br label %28, !llvm.loop !30

58:                                               ; preds = %28
  %59 = load ptr, ptr %7, align 8, !tbaa !3
  %60 = load ptr, ptr %6, align 8, !tbaa !3
  %61 = load i32, ptr %9, align 4, !tbaa !8
  %62 = call i32 @memCompare(ptr noundef %59, ptr noundef %60, i32 noundef %61)
  %63 = icmp eq i32 %62, -1
  br i1 %63, label %64, label %69

64:                                               ; preds = %58
  %65 = load ptr, ptr %6, align 8, !tbaa !3
  %66 = load ptr, ptr %7, align 8, !tbaa !3
  %67 = load i32, ptr %11, align 4, !tbaa !8
  %68 = sext i32 %67 to i64
  call void @llvm.memcpy.p0.p0.i64(ptr align 8 %65, ptr align 8 %66, i64 %68, i1 false)
  br label %69

69:                                               ; preds = %64, %58
  %70 = load ptr, ptr %6, align 8, !tbaa !3
  %71 = load ptr, ptr %8, align 8, !tbaa !3
  %72 = load i32, ptr %11, align 4, !tbaa !8
  %73 = sext i32 %72 to i64
  %74 = call i32 @memcmp(ptr noundef %70, ptr noundef %71, i64 noundef %73) #8
  %75 = icmp eq i32 %74, 0
  br i1 %75, label %76, label %77

76:                                               ; preds = %69
  store i32 0, ptr %5, align 4
  store i32 1, ptr %12, align 4
  br label %78

77:                                               ; preds = %69
  store i32 1, ptr %5, align 4
  store i32 1, ptr %12, align 4
  br label %78

78:                                               ; preds = %77, %76
  call void @llvm.lifetime.end.p0(i64 4, ptr %11) #7
  call void @llvm.lifetime.end.p0(i64 4, ptr %10) #7
  %79 = load i32, ptr %5, align 4
  ret i32 %79
}