; Function Attrs: nounwind uwtable
define range(i32 0, 2) i32 @minimalFlip1(ptr noundef %0, ptr noundef captures(none) %1, ptr noundef captures(none) %2, i32 noundef %3) local_unnamed_addr #0 {
  %5 = tail call i32 @Kit_TruthWordNum_64bit(i32 noundef %3) #19
  %6 = shl i32 %5, 3
  %7 = sext i32 %6 to i64
  tail call void @llvm.memcpy.p0.p0.i64(ptr align 8 %1, ptr align 8 %0, i64 %7, i1 false)
  tail call void @llvm.memcpy.p0.p0.i64(ptr align 8 %2, ptr align 8 %0, i64 %7, i1 false)
  tail call void @Kit_TruthChangePhase_64bit(ptr noundef %0, i32 noundef %3, i32 noundef 0) #19
  %8 = icmp sgt i32 %3, 1
  br i1 %8, label %.lr.ph, label %._crit_edge

.lr.ph:                                           ; preds = %4, %23
  %.03648 = phi i32 [ %24, %23 ], [ 1, %4 ]
  %9 = tail call i32 @Kit_TruthWordNum_64bit(i32 noundef %3) #19
  %10 = zext i32 %9 to i64
  br label %11

11:                                               ; preds = %14, %.lr.ph
  %indvars.iv.i = phi i64 [ %15, %14 ], [ %10, %.lr.ph ]
  %12 = trunc nuw i64 %indvars.iv.i to i32
  %13 = icmp sgt i32 %12, 0
  br i1 %13, label %14, label %.loopexit

14:                                               ; preds = %11
  %15 = add nsw i64 %indvars.iv.i, -1
  %16 = getelementptr inbounds nuw i64, ptr %1, i64 %15
  %17 = load i64, ptr %16, align 8, !tbaa !3
  %18 = getelementptr inbounds nuw i64, ptr %0, i64 %15
  %19 = load i64, ptr %18, align 8, !tbaa !3
  %20 = icmp eq i64 %17, %19
  br i1 %20, label %11, label %21, !llvm.loop !7

21:                                               ; preds = %14
  %22 = icmp ugt i64 %17, %19
  br i1 %22, label %memCompare.exit, label %.loopexit

memCompare.exit:                                  ; preds = %21
  tail call void @llvm.memcpy.p0.p0.i64(ptr nonnull align 8 %1, ptr nonnull align 8 %0, i64 %7, i1 false)
  br label %23

.loopexit:                                        ; preds = %11, %21
  tail call void @llvm.memcpy.p0.p0.i64(ptr align 8 %0, ptr align 8 %1, i64 %7, i1 false)
  br label %23

23:                                               ; preds = %memCompare.exit, %.loopexit
  tail call void @Kit_TruthChangePhase_64bit(ptr noundef %0, i32 noundef %3, i32 noundef %.03648) #19
  %24 = add nuw nsw i32 %.03648, 1
  %exitcond.not = icmp eq i32 %24, %3
  br i1 %exitcond.not, label %._crit_edge, label %.lr.ph, !llvm.loop !27

._crit_edge:                                      ; preds = %23, %4
  %25 = tail call i32 @Kit_TruthWordNum_64bit(i32 noundef %3) #19
  %26 = zext i32 %25 to i64
  br label %27

27:                                               ; preds = %30, %._crit_edge
  %indvars.iv.i38 = phi i64 [ %31, %30 ], [ %26, %._crit_edge ]
  %28 = trunc nuw i64 %indvars.iv.i38 to i32
  %29 = icmp sgt i32 %28, 0
  br i1 %29, label %30, label %memCompare.exit41.thread

30:                                               ; preds = %27
  %31 = add nsw i64 %indvars.iv.i38, -1
  %32 = getelementptr inbounds nuw i64, ptr %1, i64 %31
  %33 = load i64, ptr %32, align 8, !tbaa !3
  %34 = getelementptr inbounds nuw i64, ptr %0, i64 %31
  %35 = load i64, ptr %34, align 8, !tbaa !3
  %36 = icmp eq i64 %33, %35
  br i1 %36, label %27, label %37, !llvm.loop !7

37:                                               ; preds = %30
  %38 = icmp ugt i64 %33, %35
  br i1 %38, label %memCompare.exit41.thread, label %memCompare.exit41

memCompare.exit41:                                ; preds = %37
  tail call void @llvm.memcpy.p0.p0.i64(ptr nonnull align 8 %0, ptr nonnull align 8 %1, i64 %7, i1 false)
  br label %memCompare.exit41.thread

memCompare.exit41.thread:                         ; preds = %27, %37, %memCompare.exit41
  %bcmp = tail call i32 @bcmp(ptr %0, ptr %2, i64 %7)
  %39 = icmp ne i32 %bcmp, 0
  %. = zext i1 %39 to i32
  ret i32 %.
}